; Function Attrs: null_pointer_is_valid sspstrong uwtable
define hidden void @proto_add_deregistered_slice(i64 noundef %0, ptr noundef %1) local_unnamed_addr #0 {
  %3 = tail call noalias dereferenceable_or_null(16) ptr @g_slice_alloc(i64 noundef 16) #38
  store i64 %0, ptr %3, align 8
  %4 = getelementptr inbounds nuw i8, ptr %3, i64 8
  store ptr %1, ptr %4, align 8
  %5 = load ptr, ptr @deregistered_slice, align 8
  tail call void @g_ptr_array_add(ptr noundef %5, ptr noundef %3)
  ret void
}